target datalayout = "e-m:e-p270:32:32-p271:32:32-p272:64:64-i64:64-i128:128-f80:128-n8:16:32:64-S128"
target triple = "x86_64-pc-linux-gnu"

%struct.RBasic = type { i64, i64 }
%struct.RArray = type { %struct.RBasic, %union.anon }
%union.anon = type { %struct.anon }
%struct.anon = type { i64, %union.anon.0, ptr }
%union.anon.0 = type { i64 }

; Function Attrs: inlinehint nounwind sspstrong willreturn memory(none) uwtable
define internal i64 @rbimpl_fix2long_by_idiv(i64 noundef %0) #11 {
  %2 = alloca i64, align 8
  %3 = alloca i64, align 8
  %4 = alloca i64, align 8
  %5 = alloca i64, align 8
  store i64 %0, ptr %2, align 8, !tbaa !7
  call void @llvm.lifetime.start.p0(i64 8, ptr %3) #27
  %6 = load i64, ptr %2, align 8, !tbaa !7
  %7 = sub i64 %6, 1
  store i64 %7, ptr %3, align 8, !tbaa !7
  call void @llvm.lifetime.start.p0(i64 8, ptr %4) #27
  %8 = load i64, ptr %3, align 8, !tbaa !7
  %9 = sdiv i64 %8, 2
  store i64 %9, ptr %4, align 8, !tbaa !7
  call void @llvm.lifetime.start.p0(i64 8, ptr %5) #27
  %10 = load i64, ptr %4, align 8, !tbaa !7
  store i64 %10, ptr %5, align 8, !tbaa !7
  %11 = load i64, ptr %5, align 8, !tbaa !7
  call void @llvm.lifetime.end.p0(i64 8, ptr %5) #27
  call void @llvm.lifetime.end.p0(i64 8, ptr %4) #27
  call void @llvm.lifetime.end.p0(i64 8, ptr %3) #27
  ret i64 %11
}

; Function Attrs: inlinehint nounwind sspstrong willreturn memory(none) uwtable
define internal i64 @rbimpl_fix2long_by_shift(i64 noundef %0) #11 {
  %2 = alloca i64, align 8
  %3 = alloca i64, align 8
  %4 = alloca i64, align 8
  %5 = alloca i64, align 8
  store i64 %0, ptr %2, align 8, !tbaa !7
  call void @llvm.lifetime.start.p0(i64 8, ptr %3) #27
  %6 = load i64, ptr %2, align 8, !tbaa !7
  store i64 %6, ptr %3, align 8, !tbaa !7
  call void @llvm.lifetime.start.p0(i64 8, ptr %4) #27
  %7 = load i64, ptr %3, align 8, !tbaa !7
  %8 = ashr i64 %7, 1
  store i64 %8, ptr %4, align 8, !tbaa !7
  call void @llvm.lifetime.start.p0(i64 8, ptr %5) #27
  %9 = load i64, ptr %4, align 8, !tbaa !7
  store i64 %9, ptr %5, align 8, !tbaa !7
  %10 = load i64, ptr %5, align 8, !tbaa !7
  call void @llvm.lifetime.end.p0(i64 8, ptr %5) #27
  call void @llvm.lifetime.end.p0(i64 8, ptr %4) #27
  call void @llvm.lifetime.end.p0(i64 8, ptr %3) #27
  ret i64 %10
}

; Function Attrs: inlinehint nounwind sspstrong willreturn memory(none) uwtable
define internal zeroext i1 @rbimpl_right_shift_is_arithmetic_p() #11 {
  ret i1 true
}

; Function Attrs: inlinehint nounwind sspstrong willreturn memory(read) uwtable
define internal i64 @RB_FL_TEST_RAW(i64 noundef %0, i64 noundef %1) #2 {
  %3 = alloca i64, align 8
  %4 = alloca i64, align 8
  store i64 %0, ptr %3, align 8, !tbaa !7
  store i64 %1, ptr %4, align 8, !tbaa !7
  %5 = load i64, ptr %3, align 8, !tbaa !7
  %6 = inttoptr i64 %5 to ptr
  %7 = getelementptr inbounds nuw %struct.RBasic, ptr %6, i32 0, i32 0
  %8 = load i64, ptr %7, align 8, !tbaa !11
  %9 = load i64, ptr %4, align 8, !tbaa !7
  %10 = and i64 %8, %9
  ret i64 %10
}

; Function Attrs: inlinehint nounwind sspstrong willreturn memory(none) uwtable
define internal i64 @rb_fix2long(i64 noundef %0) #11 {
  %2 = alloca i64, align 8
  %3 = alloca i64, align 8
  store i64 %0, ptr %3, align 8, !tbaa !7
  %4 = call zeroext i1 @rbimpl_right_shift_is_arithmetic_p() #29
  br i1 %4, label %5, label %8

5:                                                ; preds = %1
  %6 = load i64, ptr %3, align 8, !tbaa !7
  %7 = call i64 @rbimpl_fix2long_by_shift(i64 noundef %6) #29
  store i64 %7, ptr %2, align 8
  br label %11

8:                                                ; preds = %1
  %9 = load i64, ptr %3, align 8, !tbaa !7
  %10 = call i64 @rbimpl_fix2long_by_idiv(i64 noundef %9) #29
  store i64 %10, ptr %2, align 8
  br label %11

11:                                               ; preds = %8, %5
  %12 = load i64, ptr %2, align 8
  ret i64 %12
}

; Function Attrs: inlinehint nounwind sspstrong willreturn memory(none) uwtable
define internal zeroext i1 @RB_FIXNUM_P(i64 noundef %0) #11 {
  %2 = alloca i64, align 8
  store i64 %0, ptr %2, align 8, !tbaa !7
  %3 = load i64, ptr %2, align 8, !tbaa !7
  %4 = and i64 %3, 1
  %5 = icmp ne i64 %4, 0
  ret i1 %5
}

; Function Attrs: inlinehint nounwind sspstrong willreturn memory(read) uwtable
define internal ptr @rb_array_const_ptr(i64 noundef %0) #2 {
  %2 = alloca ptr, align 8
  %3 = alloca i64, align 8
  store i64 %0, ptr %3, align 8, !tbaa !7
  %4 = load i64, ptr %3, align 8, !tbaa !7
  %5 = call zeroext i1 @RB_FL_ANY_RAW(i64 noundef %4, i64 noundef 8192) #26
  br i1 %5, label %6, label %11

6:                                                ; preds = %1
  %7 = load i64, ptr %3, align 8, !tbaa !7
  %8 = inttoptr i64 %7 to ptr
  %9 = getelementptr inbounds nuw %struct.RArray, ptr %8, i32 0, i32 1
  %10 = getelementptr inbounds [1 x i64], ptr %9, i64 0, i64 0
  store ptr %10, ptr %2, align 8
  br label %17

11:                                               ; preds = %1
  %12 = load i64, ptr %3, align 8, !tbaa !7
  %13 = inttoptr i64 %12 to ptr
  %14 = getelementptr inbounds nuw %struct.RArray, ptr %13, i32 0, i32 1
  %15 = getelementptr inbounds nuw %struct.anon, ptr %14, i32 0, i32 2
  %16 = load ptr, ptr %15, align 8, !tbaa !13
  store ptr %16, ptr %2, align 8
  br label %17

17:                                               ; preds = %11, %6
  %18 = load ptr, ptr %2, align 8
  ret ptr %18
}

; Function Attrs: inlinehint nounwind sspstrong willreturn memory(read) uwtable
define internal i64 @RARRAY_EMBED_LEN(i64 noundef %0) #2 {
  %2 = alloca i64, align 8
  %3 = alloca i64, align 8
  store i64 %0, ptr %2, align 8, !tbaa !7
  call void @llvm.lifetime.start.p0(i64 8, ptr %3) #27
  %4 = load i64, ptr %2, align 8, !tbaa !7
  %5 = inttoptr i64 %4 to ptr
  %6 = getelementptr inbounds nuw %struct.RBasic, ptr %5, i32 0, i32 0
  %7 = load i64, ptr %6, align 8, !tbaa !11
  store i64 %7, ptr %3, align 8, !tbaa !7
  %8 = load i64, ptr %3, align 8, !tbaa !7
  %9 = and i64 %8, 4161536
  store i64 %9, ptr %3, align 8, !tbaa !7
  %10 = load i64, ptr %3, align 8, !tbaa !7
  %11 = lshr i64 %10, 15
  store i64 %11, ptr %3, align 8, !tbaa !7
  %12 = load i64, ptr %3, align 8, !tbaa !7
  call void @llvm.lifetime.end.p0(i64 8, ptr %3) #27
  ret i64 %12
}

; Function Attrs: inlinehint nounwind sspstrong willreturn memory(read) uwtable
define internal zeroext i1 @RB_FL_ANY_RAW(i64 noundef %0, i64 noundef %1) #2 {
  %3 = alloca i64, align 8
  %4 = alloca i64, align 8
  store i64 %0, ptr %3, align 8, !tbaa !7
  store i64 %1, ptr %4, align 8, !tbaa !7
  %5 = load i64, ptr %3, align 8, !tbaa !7
  %6 = load i64, ptr %4, align 8, !tbaa !7
  %7 = call i64 @RB_FL_TEST_RAW(i64 noundef %5, i64 noundef %6) #26
  %8 = icmp ne i64 %7, 0
  ret i1 %8
}

; Function Attrs: inlinehint nounwind sspstrong willreturn memory(none) uwtable
define internal i64 @RB_INT2FIX(i64 noundef %0) #11 {
  %2 = alloca i64, align 8
  %3 = alloca i64, align 8
  %4 = alloca i64, align 8
  %5 = alloca i64, align 8
  %6 = alloca i64, align 8
  %7 = alloca i64, align 8
  store i64 %0, ptr %2, align 8, !tbaa !7
  call void @llvm.lifetime.start.p0(i64 8, ptr %3) #27
  %8 = load i64, ptr %2, align 8, !tbaa !7
  store i64 %8, ptr %3, align 8, !tbaa !7
  call void @llvm.lifetime.start.p0(i64 8, ptr %4) #27
  %9 = load i64, ptr %3, align 8, !tbaa !7
  %10 = shl i64 %9, 1
  %11 = add i64 %10, 1
  store i64 %11, ptr %4, align 8, !tbaa !7
  call void @llvm.lifetime.start.p0(i64 8, ptr %5) #27
  %12 = load i64, ptr %4, align 8, !tbaa !7
  store i64 %12, ptr %5, align 8, !tbaa !7
  call void @llvm.lifetime.start.p0(i64 8, ptr %6) #27
  %13 = load i64, ptr %5, align 8, !tbaa !7
  store i64 %13, ptr %6, align 8, !tbaa !7
  call void @llvm.lifetime.start.p0(i64 8, ptr %7) #27
  %14 = load i64, ptr %6, align 8, !tbaa !7
  store i64 %14, ptr %7, align 8, !tbaa !7
  %15 = load i64, ptr %7, align 8, !tbaa !7
  call void @llvm.lifetime.end.p0(i64 8, ptr %7) #27
  call void @llvm.lifetime.end.p0(i64 8, ptr %6) #27
  call void @llvm.lifetime.end.p0(i64 8, ptr %5) #27
  call void @llvm.lifetime.end.p0(i64 8, ptr %4) #27
  call void @llvm.lifetime.end.p0(i64 8, ptr %3) #27
  ret i64 %15
}

; Function Attrs: inlinehint nounwind sspstrong uwtable
define internal i64 @rb_num2long_inline(i64 noundef %0) #1 {
  %2 = alloca i64, align 8
  %3 = alloca i64, align 8
  store i64 %0, ptr %3, align 8, !tbaa !7
  %4 = load i64, ptr %3, align 8, !tbaa !7
  %5 = call zeroext i1 @RB_FIXNUM_P(i64 noundef %4) #29
  br i1 %5, label %6, label %9

6:                                                ; preds = %1
  %7 = load i64, ptr %3, align 8, !tbaa !7
  %8 = call i64 @rb_fix2long(i64 noundef %7) #29
  store i64 %8, ptr %2, align 8
  br label %12

9:                                                ; preds = %1
  %10 = load i64, ptr %3, align 8, !tbaa !7
  %11 = call i64 @rb_num2long(i64 noundef %10)
  store i64 %11, ptr %2, align 8
  br label %12

12:                                               ; preds = %9, %6
  %13 = load i64, ptr %2, align 8
  ret i64 %13
}

; Function Attrs: inlinehint nounwind sspstrong willreturn memory(read) uwtable
define internal i64 @RARRAY_AREF(i64 noundef %0, i64 noundef %1) #2 {
  %3 = alloca i64, align 8
  %4 = alloca i64, align 8
  %5 = alloca i64, align 8
  store i64 %0, ptr %3, align 8, !tbaa !7
  store i64 %1, ptr %4, align 8, !tbaa !7
  call void @llvm.lifetime.start.p0(i64 8, ptr %5) #27
  %6 = load i64, ptr %3, align 8, !tbaa !7
  %7 = call ptr @rb_array_const_ptr(i64 noundef %6) #26
  %8 = load i64, ptr %4, align 8, !tbaa !7
  %9 = getelementptr i64, ptr %7, i64 %8
  %10 = load i64, ptr %9, align 8, !tbaa !7
  store i64 %10, ptr %5, align 8, !tbaa !7
  %11 = load i64, ptr %5, align 8, !tbaa !7
  call void @llvm.lifetime.end.p0(i64 8, ptr %5) #27
  ret i64 %11
}

; Function Attrs: inlinehint nounwind sspstrong willreturn memory(read) uwtable
define internal i64 @rb_array_len(i64 noundef %0) #2 {
  %2 = alloca i64, align 8
  %3 = alloca i64, align 8
  store i64 %0, ptr %3, align 8, !tbaa !7
  %4 = load i64, ptr %3, align 8, !tbaa !7
  %5 = call zeroext i1 @RB_FL_ANY_RAW(i64 noundef %4, i64 noundef 8192) #26
  br i1 %5, label %6, label %9

6:                                                ; preds = %1
  %7 = load i64, ptr %3, align 8, !tbaa !7
  %8 = call i64 @RARRAY_EMBED_LEN(i64 noundef %7) #26
  store i64 %8, ptr %2, align 8
  br label %15

9:                                                ; preds = %1
  %10 = load i64, ptr %3, align 8, !tbaa !7
  %11 = inttoptr i64 %10 to ptr
  %12 = getelementptr inbounds nuw %struct.RArray, ptr %11, i32 0, i32 1
  %13 = getelementptr inbounds nuw %struct.anon, ptr %12, i32 0, i32 0
  %14 = load i64, ptr %13, align 8, !tbaa !13
  store i64 %14, ptr %2, align 8
  br label %15

15:                                               ; preds = %9, %6
  %16 = load i64, ptr %2, align 8
  ret i64 %16
}

; Function Attrs: nounwind sspstrong uwtable
define internal i64 @rb_ary_repeated_permutation_size(i64 noundef %0, i64 noundef %1, i64 noundef %2) #0 {
  %4 = alloca i64, align 8
  %5 = alloca i64, align 8
  %6 = alloca i64, align 8
  %7 = alloca i64, align 8
  %8 = alloca i64, align 8
  %9 = alloca i64, align 8
  %10 = alloca i32, align 4
  store i64 %0, ptr %5, align 8, !tbaa !7
  store i64 %1, ptr %6, align 8, !tbaa !7
  store i64 %2, ptr %7, align 8, !tbaa !7
  call void @llvm.lifetime.start.p0(i64 8, ptr %8) #27
  %11 = load i64, ptr %5, align 8, !tbaa !7
  %12 = call i64 @rb_array_len(i64 noundef %11) #26
  store i64 %12, ptr %8, align 8, !tbaa !7
  call void @llvm.lifetime.start.p0(i64 8, ptr %9) #27
  %13 = load i64, ptr %6, align 8, !tbaa !7
  %14 = call i64 @RARRAY_AREF(i64 noundef %13, i64 noundef 0) #26
  %15 = call i64 @rb_num2long_inline(i64 noundef %14)
  store i64 %15, ptr %9, align 8, !tbaa !7
  %16 = load i64, ptr %9, align 8, !tbaa !7
  %17 = icmp slt i64 %16, 0
  br i1 %17, label %18, label %20

18:                                               ; preds = %3
  %19 = call i64 @RB_INT2FIX(i64 noundef 0) #29
  store i64 %19, ptr %4, align 8
  store i32 1, ptr %10, align 4
  br label %34

20:                                               ; preds = %3
  %21 = load i64, ptr %8, align 8, !tbaa !7
  %22 = icmp sle i64 %21, 0
  br i1 %22, label %23, label %30

23:                                               ; preds = %20
  %24 = load i64, ptr %9, align 8, !tbaa !7
  %25 = icmp ne i64 %24, 0
  %26 = xor i1 %25, true
  %27 = zext i1 %26 to i32
  %28 = sext i32 %27 to i64
  %29 = call i64 @RB_INT2FIX(i64 noundef %28) #29
  store i64 %29, ptr %4, align 8
  store i32 1, ptr %10, align 4
  br label %34

30:                                               ; preds = %20
  %31 = load i64, ptr %8, align 8, !tbaa !7
  %32 = load i64, ptr %9, align 8, !tbaa !7
  %33 = call i64 @rb_int_positive_pow(i64 noundef %31, i64 noundef %32)
  store i64 %33, ptr %4, align 8
  store i32 1, ptr %10, align 4
  br label %34

34:                                               ; preds = %30, %23, %18
  call void @llvm.lifetime.end.p0(i64 8, ptr %9) #27
  call void @llvm.lifetime.end.p0(i64 8, ptr %8) #27
  %35 = load i64, ptr %4, align 8
  ret i64 %35
}