; Function Attrs: nounwind sspstrong uwtable
define internal i64 @rb_ary_repeated_permutation_size(i64 noundef %0, i64 noundef %1, i64 %2) #4 {
  %4 = inttoptr i64 %0 to ptr
  %5 = load i64, ptr %4, align 8, !tbaa !7
  %6 = and i64 %5, 8192
  %.not.i = icmp eq i64 %6, 0
  br i1 %.not.i, label %10, label %7

7:                                                ; preds = %3
  %8 = lshr i64 %5, 15
  %9 = and i64 %8, 127
  br label %rb_array_len.exit

10:                                               ; preds = %3
  %11 = getelementptr inbounds nuw i8, ptr %4, i64 16
  %12 = load i64, ptr %11, align 8, !tbaa !12
  br label %rb_array_len.exit

rb_array_len.exit:                                ; preds = %7, %10
  %.0.i = phi i64 [ %9, %7 ], [ %12, %10 ]
  %13 = inttoptr i64 %1 to ptr
  %14 = load i64, ptr %13, align 8, !tbaa !7
  %15 = and i64 %14, 8192
  %.not.i.i = icmp eq i64 %15, 0
  br i1 %.not.i.i, label %18, label %16

16:                                               ; preds = %rb_array_len.exit
  %17 = getelementptr inbounds nuw i8, ptr %13, i64 16
  br label %RARRAY_AREF.exit

18:                                               ; preds = %rb_array_len.exit
  %19 = getelementptr inbounds nuw i8, ptr %13, i64 32
  %20 = load ptr, ptr %19, align 8, !tbaa !12
  br label %RARRAY_AREF.exit

RARRAY_AREF.exit:                                 ; preds = %16, %18
  %.0.i.i = phi ptr [ %17, %16 ], [ %20, %18 ]
  %21 = load i64, ptr %.0.i.i, align 8, !tbaa !13
  %22 = and i64 %21, 1
  %.not.i10 = icmp eq i64 %22, 0
  br i1 %.not.i10, label %25, label %23

23:                                               ; preds = %RARRAY_AREF.exit
  %24 = ashr i64 %21, 1
  br label %rb_num2long_inline.exit

25:                                               ; preds = %RARRAY_AREF.exit
  %26 = tail call i64 @rb_num2long(i64 noundef %21) #24
  br label %rb_num2long_inline.exit

rb_num2long_inline.exit:                          ; preds = %23, %25
  %.0.i11 = phi i64 [ %24, %23 ], [ %26, %25 ]
  %27 = icmp slt i64 %.0.i11, 0
  br i1 %27, label %34, label %28

28:                                               ; preds = %rb_num2long_inline.exit
  %29 = icmp slt i64 %.0.i, 1
  br i1 %29, label %30, label %32

30:                                               ; preds = %28
  %.not = icmp eq i64 %.0.i11, 0
  %31 = select i1 %.not, i64 3, i64 1
  br label %34

32:                                               ; preds = %28
  %33 = tail call i64 @rb_int_positive_pow(i64 noundef %.0.i, i64 noundef %.0.i11) #24
  br label %34

34:                                               ; preds = %rb_num2long_inline.exit, %32, %30
  %.0 = phi i64 [ %31, %30 ], [ %33, %32 ], [ 1, %rb_num2long_inline.exit ]
  ret i64 %.0
}